; Function Attrs: mustprogress uwtable
define hidden noundef zeroext i1 @_ZN4cvc58internal6theory12SharedSolver12propagateLitENS0_12NodeTemplateILb0EEEb(ptr nocapture noundef nonnull readonly align 8 dereferenceable(976) %this, ptr nocapture noundef readonly %predicate, i1 noundef zeroext %value) local_unnamed_addr #3 align 2 personality ptr @__gxx_personality_v0 {
entry:
  %nb.i.i = alloca %"class.cvc5::internal::NodeBuilder", align 8
  %agg.tmp.i.i = alloca %"class.cvc5::internal::NodeTemplate.47", align 8
  %agg.tmp = alloca %"class.cvc5::internal::NodeTemplate.47", align 8
  %agg.tmp3 = alloca %"class.cvc5::internal::NodeTemplate.47", align 8
  %ref.tmp = alloca %"class.cvc5::internal::NodeTemplate", align 8
  %d_im = getelementptr inbounds i8, ptr %this, i64 968
  %0 = load ptr, ptr %d_im, align 8
  br i1 %value, label %if.then, label %if.end

if.then:                                          ; preds = %entry
  %1 = load ptr, ptr %predicate, align 8
  store ptr %1, ptr %agg.tmp, align 8
  %vtable = load ptr, ptr %0, align 8
  %vfn = getelementptr inbounds i8, ptr %vtable, i64 16
  %2 = load ptr, ptr %vfn, align 8
  %call = call noundef zeroext i1 %2(ptr noundef nonnull align 8 dereferenceable(256) %0, ptr noundef nonnull %agg.tmp)
  br label %return

if.end:                                           ; preds = %entry
  %call.i = tail call noundef ptr @_ZN4cvc58internal11NodeManager9currentNMEv(), !noalias !18
  %3 = load ptr, ptr %predicate, align 8, !noalias !18
  call void @llvm.lifetime.start.p0(i64 120, ptr nonnull %nb.i.i), !noalias !18
  call void @llvm.lifetime.start.p0(i64 8, ptr nonnull %agg.tmp.i.i), !noalias !18
  call void @_ZN4cvc58internal11NodeBuilderC1EPNS0_11NodeManagerENS0_4kind6Kind_tE(ptr noundef nonnull align 8 dereferenceable(116) %nb.i.i, ptr noundef nonnull %call.i, i32 noundef 18), !noalias !18
  store ptr %3, ptr %agg.tmp.i.i, align 8, !noalias !21
  %call.i.i = invoke noundef nonnull align 8 dereferenceable(116) ptr @_ZN4cvc58internal11NodeBuilderlsENS0_12NodeTemplateILb0EEE(ptr noundef nonnull align 8 dereferenceable(116) %nb.i.i, ptr noundef nonnull %agg.tmp.i.i)
          to label %invoke.cont3.i.i unwind label %lpad2.i.i, !noalias !21

invoke.cont3.i.i:                                 ; preds = %if.end
  invoke void @_ZN4cvc58internal11NodeBuilder13constructNodeEv(ptr nonnull sret(%"class.cvc5::internal::NodeTemplate") align 8 %ref.tmp, ptr noundef nonnull align 8 dereferenceable(116) %nb.i.i)
          to label %_ZNK4cvc58internal12NodeTemplateILb0EE7notNodeEv.exit unwind label %lpad.i.i

lpad.i.i:                                         ; preds = %invoke.cont3.i.i
  %4 = landingpad { ptr, i32 }
          cleanup
  br label %ehcleanup.i.i

lpad2.i.i:                                        ; preds = %if.end
  %5 = landingpad { ptr, i32 }
          cleanup
  br label %ehcleanup.i.i

common.resume:                                    ; preds = %lpad8, %ehcleanup.i.i
  %common.resume.op = phi { ptr, i32 } [ %.pn.i.i, %ehcleanup.i.i ], [ %12, %lpad8 ]
  resume { ptr, i32 } %common.resume.op

ehcleanup.i.i:                                    ; preds = %lpad2.i.i, %lpad.i.i
  %.pn.i.i = phi { ptr, i32 } [ %4, %lpad.i.i ], [ %5, %lpad2.i.i ]
  call void @_ZN4cvc58internal11NodeBuilderD1Ev(ptr noundef nonnull align 8 dereferenceable(116) %nb.i.i) #18
  br label %common.resume

_ZNK4cvc58internal12NodeTemplateILb0EE7notNodeEv.exit: ; preds = %invoke.cont3.i.i
  call void @_ZN4cvc58internal11NodeBuilderD1Ev(ptr noundef nonnull align 8 dereferenceable(116) %nb.i.i) #18
  call void @llvm.lifetime.end.p0(i64 120, ptr nonnull %nb.i.i), !noalias !18
  call void @llvm.lifetime.end.p0(i64 8, ptr nonnull %agg.tmp.i.i), !noalias !18
  %6 = load ptr, ptr %ref.tmp, align 8
  store ptr %6, ptr %agg.tmp3, align 8
  %vtable6 = load ptr, ptr %0, align 8
  %vfn7 = getelementptr inbounds i8, ptr %vtable6, i64 16
  %7 = load ptr, ptr %vfn7, align 8
  %call10 = invoke noundef zeroext i1 %7(ptr noundef nonnull align 8 dereferenceable(256) %0, ptr noundef nonnull %agg.tmp3)
          to label %invoke.cont9 unwind label %lpad8

invoke.cont9:                                     ; preds = %_ZNK4cvc58internal12NodeTemplateILb0EE7notNodeEv.exit
  %8 = load ptr, ptr %ref.tmp, align 8
  %bf.load.i.i = load i64, ptr %8, align 8
  %9 = and i64 %bf.load.i.i, 1152920405095219200
  %cmp.not.i.i = icmp eq i64 %9, 1152920405095219200
  br i1 %cmp.not.i.i, label %return, label %if.then.i.i

if.then.i.i:                                      ; preds = %invoke.cont9
  %bf.value.i.i = add i64 %bf.load.i.i, 1152920405095219200
  %bf.shl.i.i = and i64 %bf.value.i.i, 1152920405095219200
  %bf.clear7.i.i = and i64 %bf.load.i.i, -1152920405095219201
  %bf.set.i.i = or disjoint i64 %bf.shl.i.i, %bf.clear7.i.i
  store i64 %bf.set.i.i, ptr %8, align 8
  %cmp12.i.i = icmp eq i64 %bf.shl.i.i, 0
  br i1 %cmp12.i.i, label %if.then13.i.i, label %return

if.then13.i.i:                                    ; preds = %if.then.i.i
  invoke void @_ZN4cvc58internal4expr9NodeValue15markForDeletionEv(ptr noundef nonnull align 8 dereferenceable(16) %8)
          to label %return unwind label %terminate.lpad.i

terminate.lpad.i:                                 ; preds = %if.then13.i.i
  %10 = landingpad { ptr, i32 }
          catch ptr null
  %11 = extractvalue { ptr, i32 } %10, 0
  call void @__clang_call_terminate(ptr %11) #20
  unreachable

lpad8:                                            ; preds = %_ZNK4cvc58internal12NodeTemplateILb0EE7notNodeEv.exit
  %12 = landingpad { ptr, i32 }
          cleanup
  call void @_ZN4cvc58internal12NodeTemplateILb1EED2Ev(ptr noundef nonnull align 8 dereferenceable(8) %ref.tmp) #18
  br label %common.resume

return:                                           ; preds = %if.then, %if.then13.i.i, %if.then.i.i, %invoke.cont9
  %retval.0 = phi i1 [ %call, %if.then ], [ %call10, %invoke.cont9 ], [ %call10, %if.then.i.i ], [ %call10, %if.then13.i.i ]
  ret i1 %retval.0
}